; Function Attrs: nounwind uwtable
define dso_local i32 @uv_pipe_pending_type(ptr noundef readonly captures(none) %0) local_unnamed_addr #0 {
  %2 = getelementptr inbounds nuw i8, ptr %0, i64 248
  %3 = load i32, ptr %2, align 8, !tbaa !17
  %.not = icmp eq i32 %3, 0
  br i1 %.not, label %10, label %4

4:                                                ; preds = %1
  %5 = getelementptr inbounds nuw i8, ptr %0, i64 236
  %6 = load i32, ptr %5, align 4, !tbaa !39
  %7 = icmp eq i32 %6, -1
  br i1 %7, label %10, label %8

8:                                                ; preds = %4
  %9 = tail call i32 @uv_guess_handle(i32 noundef %6) #11
  br label %10

10:                                               ; preds = %4, %1, %8
  %.0 = phi i32 [ %9, %8 ], [ 0, %1 ], [ 0, %4 ]
  ret i32 %.0
}